target datalayout = "e-m:e-p270:32:32-p271:32:32-p272:64:64-i64:64-i128:128-f80:128-n8:16:32:64-S128"
target triple = "x86_64-pc-linux-gnu"

%struct.llama_sampler = type { ptr, ptr }
%struct.llama_sampler_chain_params = type { i8 }
%struct.llama_sampler_chain = type <{ %struct.llama_sampler_chain_params, [7 x i8], %"class.std::vector.0", i64, i32, [4 x i8] }>
%"class.std::vector.0" = type { %"struct.std::_Vector_base.1" }
%"struct.std::_Vector_base.1" = type { %"struct.std::_Vector_base<llama_sampler *, std::allocator<llama_sampler *>>::_Vector_impl" }
%"struct.std::_Vector_base<llama_sampler *, std::allocator<llama_sampler *>>::_Vector_impl" = type { %"struct.std::_Vector_base<llama_sampler *, std::allocator<llama_sampler *>>::_Vector_impl_data" }
%"struct.std::_Vector_base<llama_sampler *, std::allocator<llama_sampler *>>::_Vector_impl_data" = type { ptr, ptr, ptr }

@.str.1 = private unnamed_addr constant [120 x i8] c"generated/home/dtcxzyw/WorkSpace/Projects/compilers/llvm-opt-benchmark/bench/llama.cpp/llama.cpp/src/llama-sampling.cpp\00", align 1
@.str.12 = private unnamed_addr constant [89 x i8] c"%s: invalid sampler passed - requires a sampler created with llama_sampler_chain_init()\0A\00", align 1
@__func__.llama_perf_sampler_reset = private unnamed_addr constant [25 x i8] c"llama_perf_sampler_reset\00", align 1

; Function Attrs: mustprogress uwtable
define void @llama_perf_sampler_reset(ptr noundef %0) #0 {
  %2 = alloca ptr, align 8
  %3 = alloca ptr, align 8
  store ptr %0, ptr %2, align 8, !tbaa !12
  %4 = load ptr, ptr %2, align 8, !tbaa !12
  %5 = icmp eq ptr %4, null
  br i1 %5, label %11, label %6

6:                                                ; preds = %1
  %7 = load ptr, ptr %2, align 8, !tbaa !12
  %8 = getelementptr inbounds nuw %struct.llama_sampler, ptr %7, i32 0, i32 0
  %9 = load ptr, ptr %8, align 8, !tbaa !9
  %10 = icmp ne ptr %9, @_ZL21llama_sampler_chain_i
  br i1 %10, label %11, label %12

11:                                               ; preds = %6, %1
  call void (ptr, i32, ptr, ...) @ggml_abort(ptr noundef @.str.1, i32 noundef 2518, ptr noundef @.str.12, ptr noundef @__func__.llama_perf_sampler_reset) #20
  unreachable

12:                                               ; preds = %6
  call void @llvm.lifetime.start.p0(i64 8, ptr %3) #14
  %13 = load ptr, ptr %2, align 8, !tbaa !12
  %14 = getelementptr inbounds nuw %struct.llama_sampler, ptr %13, i32 0, i32 1
  %15 = load ptr, ptr %14, align 8, !tbaa !11
  store ptr %15, ptr %3, align 8, !tbaa !71
  %16 = load ptr, ptr %3, align 8, !tbaa !71
  %17 = getelementptr inbounds nuw %struct.llama_sampler_chain, ptr %16, i32 0, i32 4
  store i32 0, ptr %17, align 8, !tbaa !68
  %18 = load ptr, ptr %3, align 8, !tbaa !71
  %19 = getelementptr inbounds nuw %struct.llama_sampler_chain, ptr %18, i32 0, i32 3
  store i64 0, ptr %19, align 8, !tbaa !59
  call void @llvm.lifetime.end.p0(i64 8, ptr %3) #14
  ret void
}