; Function Attrs: mustprogress uwtable
define void @llama_perf_sampler_reset(ptr noundef readonly %0) local_unnamed_addr #0 {
  %2 = icmp eq ptr %0, null
  br i1 %2, label %5, label %3

3:                                                ; preds = %1
  %4 = load ptr, ptr %0, align 8, !tbaa !3
  %.not = icmp eq ptr %4, @_ZL21llama_sampler_chain_i
  br i1 %.not, label %6, label %5

5:                                                ; preds = %3, %1
  tail call void (ptr, i32, ptr, ...) @ggml_abort(ptr noundef nonnull @.str.1, i32 noundef 2518, ptr noundef nonnull @.str.12, ptr noundef nonnull @__func__.llama_perf_sampler_reset) #31
  unreachable

6:                                                ; preds = %3
  %7 = getelementptr inbounds nuw i8, ptr %0, i64 8
  %8 = load ptr, ptr %7, align 8, !tbaa !9
  %9 = getelementptr inbounds nuw i8, ptr %8, i64 40
  store i32 0, ptr %9, align 8, !tbaa !207
  %10 = getelementptr inbounds nuw i8, ptr %8, i64 32
  store i64 0, ptr %10, align 8, !tbaa !201
  ret void
}